opt subtitle "HI-TECH Software Omniscient Code Generator (PRO mode) build 10920"

opt pagewidth 120

	opt pm

	processor	16F877A
clrc	macro
	bcf	3,0
	endm
clrz	macro
	bcf	3,2
	endm
setc	macro
	bsf	3,0
	endm
setz	macro
	bsf	3,2
	endm
skipc	macro
	btfss	3,0
	endm
skipz	macro
	btfss	3,2
	endm
skipnc	macro
	btfsc	3,0
	endm
skipnz	macro
	btfsc	3,2
	endm
indf	equ	0
indf0	equ	0
pc	equ	2
pcl	equ	2
status	equ	3
fsr	equ	4
fsr0	equ	4
c	equ	1
z	equ	0
pclath	equ	10
# 3 "D:\pic_youtube_tutorials\lcd_interrupt.c"
	psect config,class=CONFIG,delta=2 ;#
# 3 "D:\pic_youtube_tutorials\lcd_interrupt.c"
	dw 0x3F7A ;#
	FNCALL	_main,_lcd_init
	FNCALL	_main,_lcd_command
	FNCALL	_main,_lcd_string
	FNCALL	_lcd_init,_lcd_command
	FNCALL	_lcd_string,_lcd_data
	FNROOT	_main
	FNCALL	_button,i1_lcd_command
	FNCALL	_button,i1_lcd_string
	FNCALL	i1_lcd_string,i1_lcd_data
	FNCALL	intlevel1,_button
	global	intlevel1
	FNROOT	intlevel1
	global	_PORTC
psect	text192,local,class=CODE,delta=2
global __ptext192
__ptext192:
_PORTC	set	7
	global	_GIE
_GIE	set	95
	global	_INTE
_INTE	set	92
	global	_INTF
_INTF	set	89
	global	_PEIE
_PEIE	set	94
	global	_RD0
_RD0	set	64
	global	_RD1
_RD1	set	65
	global	_RD2
_RD2	set	66
	global	_TRISC
_TRISC	set	135
	global	_TRISD
_TRISD	set	136
	global	_INTEDG
_INTEDG	set	1038
psect	strings,class=STRING,delta=2
global __pstrings
__pstrings:
;	global	stringdir,stringtab,__stringbase
stringtab:
;	String table - string pointers are 1 byte each
stringcode:stringdir:
movlw high(stringdir)
movwf pclath
movf fsr,w
incf fsr
	addwf pc
__stringbase:
	retlw	0
psect	strings
	
STR_1:	
	retlw	105	;'i'
	retlw	110	;'n'
	retlw	116	;'t'
	retlw	101	;'e'
	retlw	114	;'r'
	retlw	114	;'r'
	retlw	117	;'u'
	retlw	112	;'p'
	retlw	116	;'t'
	retlw	101	;'e'
	retlw	100	;'d'
	retlw	0
psect	strings
	
STR_2:	
	retlw	69	;'E'
	retlw	109	;'m'
	retlw	98	;'b'
	retlw	101	;'e'
	retlw	100	;'d'
	retlw	100	;'d'
	retlw	101	;'e'
	retlw	100	;'d'
	retlw	0
psect	strings
	
STR_3:	
	retlw	83	;'S'
	retlw	121	;'y'
	retlw	115	;'s'
	retlw	116	;'t'
	retlw	101	;'e'
	retlw	109	;'m'
	retlw	115	;'s'
	retlw	0
psect	strings
	file	"lcd_interrupt.as"
	line	#
psect cinit,class=CODE,delta=2
global start_initialization
start_initialization:

psect cinit,class=CODE,delta=2
global end_of_initialization

;End of C runtime variable initialization code

end_of_initialization:
clrf status
ljmp _main	;jump to C main() function
psect	cstackCOMMON,class=COMMON,space=1
global __pcstackCOMMON
__pcstackCOMMON:
	global	?_lcd_data
?_lcd_data:	; 0 bytes @ 0x0
	global	?_lcd_command
?_lcd_command:	; 0 bytes @ 0x0
	global	?_lcd_init
?_lcd_init:	; 0 bytes @ 0x0
	global	?_button
?_button:	; 0 bytes @ 0x0
	global	?_main
?_main:	; 0 bytes @ 0x0
	global	?i1_lcd_data
?i1_lcd_data:	; 0 bytes @ 0x0
	global	??i1_lcd_data
??i1_lcd_data:	; 0 bytes @ 0x0
	global	?i1_lcd_command
?i1_lcd_command:	; 0 bytes @ 0x0
	global	??i1_lcd_command
??i1_lcd_command:	; 0 bytes @ 0x0
	ds	2
	global	i1lcd_data@data
i1lcd_data@data:	; 1 bytes @ 0x2
	global	i1lcd_command@command
i1lcd_command@command:	; 1 bytes @ 0x2
	ds	1
	global	?i1_lcd_string
?i1_lcd_string:	; 0 bytes @ 0x3
	global	i1lcd_string@string_length
i1lcd_string@string_length:	; 1 bytes @ 0x3
	ds	1
	global	??i1_lcd_string
??i1_lcd_string:	; 0 bytes @ 0x4
	global	i1lcd_string@string
i1lcd_string@string:	; 1 bytes @ 0x4
	ds	1
	global	i1lcd_string@i
i1lcd_string@i:	; 1 bytes @ 0x5
	ds	1
	global	??_button
??_button:	; 0 bytes @ 0x6
	ds	4
psect	cstackBANK0,class=BANK0,space=1
global __pcstackBANK0
__pcstackBANK0:
	global	??_lcd_data
??_lcd_data:	; 0 bytes @ 0x0
	global	??_lcd_command
??_lcd_command:	; 0 bytes @ 0x0
	ds	2
	global	lcd_data@data
lcd_data@data:	; 1 bytes @ 0x2
	global	lcd_command@command
lcd_command@command:	; 1 bytes @ 0x2
	ds	1
	global	?_lcd_string
?_lcd_string:	; 0 bytes @ 0x3
	global	??_lcd_init
??_lcd_init:	; 0 bytes @ 0x3
	global	lcd_string@string_length
lcd_string@string_length:	; 1 bytes @ 0x3
	ds	1
	global	??_lcd_string
??_lcd_string:	; 0 bytes @ 0x4
	global	lcd_string@string
lcd_string@string:	; 1 bytes @ 0x4
	ds	1
	global	lcd_string@i
lcd_string@i:	; 1 bytes @ 0x5
	ds	1
	global	??_main
??_main:	; 0 bytes @ 0x6
;;Data sizes: Strings 29, constant 0, data 0, bss 0, persistent 0 stack 0
;;Auto spaces:   Size  Autos    Used
;; COMMON          14     10      10
;; BANK0           80      6       6
;; BANK1           80      0       0
;; BANK3           96      0       0
;; BANK2           96      0       0

;;
;; Pointer list with targets:

;; i1lcd_string@string	PTR const unsigned char  size(1) Largest target is 12
;;		 -> STR_1(CODE[12]), 
;;
;; lcd_string@string	PTR const unsigned char  size(1) Largest target is 12
;;		 -> STR_3(CODE[8]), STR_2(CODE[9]), STR_1(CODE[12]), 
;;


;;
;; Critical Paths under _main in COMMON
;;
;;   None.
;;
;; Critical Paths under _button in COMMON
;;
;;   _button->i1_lcd_string
;;   i1_lcd_string->i1_lcd_data
;;
;; Critical Paths under _main in BANK0
;;
;;   _main->_lcd_string
;;   _lcd_init->_lcd_command
;;   _lcd_string->_lcd_data
;;
;; Critical Paths under _button in BANK0
;;
;;   None.
;;
;; Critical Paths under _main in BANK1
;;
;;   None.
;;
;; Critical Paths under _button in BANK1
;;
;;   None.
;;
;; Critical Paths under _main in BANK3
;;
;;   None.
;;
;; Critical Paths under _button in BANK3
;;
;;   None.
;;
;; Critical Paths under _main in BANK2
;;
;;   None.
;;
;; Critical Paths under _button in BANK2
;;
;;   None.

;;
;;Main: autosize = 0, tempsize = 0, incstack = 0, save=0
;;

;;
;;Call Graph Tables:
;;
;; ---------------------------------------------------------------------------------
;; (Depth) Function   	        Calls       Base Space   Used Autos Params    Refs
;; ---------------------------------------------------------------------------------
;; (0) _main                                                 0     0      0     156
;;                           _lcd_init
;;                        _lcd_command
;;                         _lcd_string
;; ---------------------------------------------------------------------------------
;; (1) _lcd_init                                             0     0      0      22
;;                        _lcd_command
;; ---------------------------------------------------------------------------------
;; (1) _lcd_string                                           3     2      1     112
;;                                              3 BANK0      3     2      1
;;                           _lcd_data
;; ---------------------------------------------------------------------------------
;; (1) _lcd_command                                          3     3      0      22
;;                                              0 BANK0      3     3      0
;; ---------------------------------------------------------------------------------
;; (2) _lcd_data                                             3     3      0      22
;;                                              0 BANK0      3     3      0
;; ---------------------------------------------------------------------------------
;; Estimated maximum stack depth 2
;; ---------------------------------------------------------------------------------
;; (Depth) Function   	        Calls       Base Space   Used Autos Params    Refs
;; ---------------------------------------------------------------------------------
;; (3) _button                                               4     4      0     442
;;                                              6 COMMON     4     4      0
;;                      i1_lcd_command
;;                       i1_lcd_string
;; ---------------------------------------------------------------------------------
;; (4) i1_lcd_string                                         3     2      1     369
;;                                              3 COMMON     3     2      1
;;                         i1_lcd_data
;; ---------------------------------------------------------------------------------
;; (4) i1_lcd_command                                        3     3      0      73
;;                                              0 COMMON     3     3      0
;; ---------------------------------------------------------------------------------
;; (5) i1_lcd_data                                           3     3      0      73
;;                                              0 COMMON     3     3      0
;; ---------------------------------------------------------------------------------
;; Estimated maximum stack depth 5
;; ---------------------------------------------------------------------------------

;; Call Graph Graphs:

;; _main (ROOT)
;;   _lcd_init
;;     _lcd_command
;;   _lcd_command
;;   _lcd_string
;;     _lcd_data
;;
;; _button (ROOT)
;;   i1_lcd_command
;;   i1_lcd_string
;;     i1_lcd_data
;;

;; Address spaces:

;;Name               Size   Autos  Total    Cost      Usage
;;BITCOMMON            E      0       0       0        0.0%
;;EEDATA             100      0       0       0        0.0%
;;NULL                 0      0       0       0        0.0%
;;CODE                 0      0       0       0        0.0%
;;COMMON               E      A       A       1       71.4%
;;BITSFR0              0      0       0       1        0.0%
;;SFR0                 0      0       0       1        0.0%
;;BITSFR1              0      0       0       2        0.0%
;;SFR1                 0      0       0       2        0.0%
;;STACK                0      0       8       2        0.0%
;;ABS                  0      0       0       3        0.0%
;;BITBANK0            50      0       0       4        0.0%
;;BITSFR3              0      0       0       4        0.0%
;;SFR3                 0      0       0       4        0.0%
;;BANK0               50      6       6       5        7.5%
;;BITSFR2              0      0       0       5        0.0%
;;SFR2                 0      0       0       5        0.0%
;;BITBANK1            50      0       0       6        0.0%
;;BANK1               50      0       0       7        0.0%
;;BITBANK3            60      0       0       8        0.0%
;;BANK3               60      0       0       9        0.0%
;;BITBANK2            60      0       0      10        0.0%
;;BANK2               60      0       0      11        0.0%
;;DATA                 0      0       0      12        0.0%

	global	_main
psect	maintext,global,class=CODE,delta=2
global __pmaintext
__pmaintext:

;; *************** function _main *****************
;; Defined at:
;;		line 57 in file "D:\pic_youtube_tutorials\lcd_interrupt.c"
;; Parameters:    Size  Location     Type
;;		None
;; Auto vars:     Size  Location     Type
;;		None
;; Return value:  Size  Location     Type
;;		None               void
;; Registers used:
;;		wreg, fsr0l, fsr0h, status,2, status,0, pclath, cstack
;; Tracked objects:
;;		On entry : 17F/0
;;		On exit  : 60/0
;;		Unchanged: 0/0
;; Data sizes:     COMMON   BANK0   BANK1   BANK3   BANK2
;;      Params:         0       0       0       0       0
;;      Locals:         0       0       0       0       0
;;      Temps:          0       0       0       0       0
;;      Totals:         0       0       0       0       0
;;Total ram usage:        0 bytes
;; Hardware stack levels required when called:    5
;; This function calls:
;;		_lcd_init
;;		_lcd_command
;;		_lcd_string
;; This function is called by:
;;		Startup code after reset
;; This function uses a non-reentrant model
;;
psect	maintext
	file	"D:\pic_youtube_tutorials\lcd_interrupt.c"
	line	57
	global	__size_of_main
	__size_of_main	equ	__end_of_main-_main
	
_main:	
	opt	stack 3
; Regs used in _main: [wreg-fsr0h+status,2+status,0+pclath+cstack]
	line	58
	
l1934:	
;lcd_interrupt.c: 58: TRISC = 0x00;
	bsf	status, 5	;RP0=1, select bank1
	clrf	(135)^080h	;volatile
	line	59
;lcd_interrupt.c: 59: TRISD = 0x00;
	clrf	(136)^080h	;volatile
	line	60
	
l1936:	
;lcd_interrupt.c: 60: GIE = 1;
	bsf	(95/8),(95)&7
	line	61
	
l1938:	
;lcd_interrupt.c: 61: PEIE = 1;
	bsf	(94/8),(94)&7
	line	62
	
l1940:	
;lcd_interrupt.c: 62: INTE = 1;
	bsf	(92/8),(92)&7
	line	63
	
l1942:	
;lcd_interrupt.c: 63: INTEDG = 1;
	bsf	(1038/8)^080h,(1038)&7
	line	64
	
l1944:	
;lcd_interrupt.c: 64: lcd_init();
	fcall	_lcd_init
	line	67
	
l1946:	
;lcd_interrupt.c: 66: {
;lcd_interrupt.c: 67: lcd_command(0x83);
	movlw	(083h)
	fcall	_lcd_command
	line	68
	
l1948:	
;lcd_interrupt.c: 68: lcd_string("Embedded",8);
	movlw	(08h)
	movwf	(?_lcd_string)
	movlw	((STR_2-__stringbase))&0ffh
	fcall	_lcd_string
	line	69
	
l1950:	
;lcd_interrupt.c: 69: lcd_command(0xC3);
	movlw	(0C3h)
	fcall	_lcd_command
	line	70
	
l1952:	
;lcd_interrupt.c: 70: lcd_string("Systems",7);
	movlw	(07h)
	movwf	(?_lcd_string)
	movlw	((STR_3-__stringbase))&0ffh
	fcall	_lcd_string
	goto	l1946
	global	start
	ljmp	start
	opt stack 0
psect	maintext
	line	78
GLOBAL	__end_of_main
	__end_of_main:
;; =============== function _main ends ============

	signat	_main,88
	global	_lcd_init
psect	text193,local,class=CODE,delta=2
global __ptext193
__ptext193:

;; *************** function _lcd_init *****************
;; Defined at:
;;		line 38 in file "D:\pic_youtube_tutorials\lcd_interrupt.c"
;; Parameters:    Size  Location     Type
;;		None
;; Auto vars:     Size  Location     Type
;;		None
;; Return value:  Size  Location     Type
;;		None               void
;; Registers used:
;;		wreg, status,2, status,0, pclath, cstack
;; Tracked objects:
;;		On entry : 17F/20
;;		On exit  : 60/0
;;		Unchanged: 0/0
;; Data sizes:     COMMON   BANK0   BANK1   BANK3   BANK2
;;      Params:         0       0       0       0       0
;;      Locals:         0       0       0       0       0
;;      Temps:          0       0       0       0       0
;;      Totals:         0       0       0       0       0
;;Total ram usage:        0 bytes
;; Hardware stack levels used:    1
;; Hardware stack levels required when called:    4
;; This function calls:
;;		_lcd_command
;; This function is called by:
;;		_main
;; This function uses a non-reentrant model
;;
psect	text193
	file	"D:\pic_youtube_tutorials\lcd_interrupt.c"
	line	38
	global	__size_of_lcd_init
	__size_of_lcd_init	equ	__end_of_lcd_init-_lcd_init
	
_lcd_init:	
	opt	stack 3
; Regs used in _lcd_init: [wreg+status,2+status,0+pclath+cstack]
	line	39
	
l1932:	
;lcd_interrupt.c: 39: lcd_command(0x38);
	movlw	(038h)
	fcall	_lcd_command
	line	40
;lcd_interrupt.c: 40: lcd_command(0x06);
	movlw	(06h)
	fcall	_lcd_command
	line	41
;lcd_interrupt.c: 41: lcd_command(0x0C);
	movlw	(0Ch)
	fcall	_lcd_command
	line	42
;lcd_interrupt.c: 42: lcd_command(0x01);
	movlw	(01h)
	fcall	_lcd_command
	line	44
	
l699:	
	return
	opt stack 0
GLOBAL	__end_of_lcd_init
	__end_of_lcd_init:
;; =============== function _lcd_init ends ============

	signat	_lcd_init,88
	global	_lcd_string
psect	text194,local,class=CODE,delta=2
global __ptext194
__ptext194:

;; *************** function _lcd_string *****************
;; Defined at:
;;		line 30 in file "D:\pic_youtube_tutorials\lcd_interrupt.c"
;; Parameters:    Size  Location     Type
;;  string          1    wreg     PTR const unsigned char 
;;		 -> STR_3(8), STR_2(9), STR_1(12), 
;;  string_lengt    1    3[BANK0 ] unsigned char 
;; Auto vars:     Size  Location     Type
;;  string          1    4[BANK0 ] PTR const unsigned char 
;;		 -> STR_3(8), STR_2(9), STR_1(12), 
;;  i               1    5[BANK0 ] unsigned char 
;; Return value:  Size  Location     Type
;;		None               void
;; Registers used:
;;		wreg, fsr0l, fsr0h, status,2, status,0, pclath, cstack
;; Tracked objects:
;;		On entry : 60/0
;;		On exit  : 60/0
;;		Unchanged: 0/0
;; Data sizes:     COMMON   BANK0   BANK1   BANK3   BANK2
;;      Params:         0       1       0       0       0
;;      Locals:         0       2       0       0       0
;;      Temps:          0       0       0       0       0
;;      Totals:         0       3       0       0       0
;;Total ram usage:        3 bytes
;; Hardware stack levels used:    1
;; Hardware stack levels required when called:    4
;; This function calls:
;;		_lcd_data
;; This function is called by:
;;		_main
;; This function uses a non-reentrant model
;;
psect	text194
	file	"D:\pic_youtube_tutorials\lcd_interrupt.c"
	line	30
	global	__size_of_lcd_string
	__size_of_lcd_string	equ	__end_of_lcd_string-_lcd_string
	
_lcd_string:	
	opt	stack 3
; Regs used in _lcd_string: [wreg-fsr0h+status,2+status,0+pclath+cstack]
;lcd_string@string stored from wreg
	line	32
	movwf	(lcd_string@string)
	
l1924:	
;lcd_interrupt.c: 31: unsigned char i;
;lcd_interrupt.c: 32: for(i =0; i<string_length; i++)
	clrf	(lcd_string@i)
	goto	l1930
	line	34
	
l1926:	
;lcd_interrupt.c: 33: {
;lcd_interrupt.c: 34: lcd_data(string[i]);
	movf	(lcd_string@i),w
	addwf	(lcd_string@string),w
	movwf	fsr0
	fcall	stringdir
	fcall	_lcd_data
	line	32
	
l1928:	
	incf	(lcd_string@i),f
	
l1930:	
	movf	(lcd_string@string_length),w
	subwf	(lcd_string@i),w
	skipc
	goto	u71
	goto	u70
u71:
	goto	l1926
u70:
	line	36
	
l696:	
	return
	opt stack 0
GLOBAL	__end_of_lcd_string
	__end_of_lcd_string:
;; =============== function _lcd_string ends ============

	signat	_lcd_string,8312
	global	_lcd_command
psect	text195,local,class=CODE,delta=2
global __ptext195
__ptext195:

;; *************** function _lcd_command *****************
;; Defined at:
;;		line 20 in file "D:\pic_youtube_tutorials\lcd_interrupt.c"
;; Parameters:    Size  Location     Type
;;  command         1    wreg     unsigned char 
;; Auto vars:     Size  Location     Type
;;  command         1    2[BANK0 ] unsigned char 
;; Return value:  Size  Location     Type
;;		None               void
;; Registers used:
;;		wreg
;; Tracked objects:
;;		On entry : 40/0
;;		On exit  : 60/0
;;		Unchanged: 0/0
;; Data sizes:     COMMON   BANK0   BANK1   BANK3   BANK2
;;      Params:         0       0       0       0       0
;;      Locals:         0       1       0       0       0
;;      Temps:          0       2       0       0       0
;;      Totals:         0       3       0       0       0
;;Total ram usage:        3 bytes
;; Hardware stack levels used:    1
;; Hardware stack levels required when called:    3
;; This function calls:
;;		Nothing
;; This function is called by:
;;		_lcd_init
;;		_main
;; This function uses a non-reentrant model
;;
psect	text195
	file	"D:\pic_youtube_tutorials\lcd_interrupt.c"
	line	20
	global	__size_of_lcd_command
	__size_of_lcd_command	equ	__end_of_lcd_command-_lcd_command
	
_lcd_command:	
	opt	stack 4
; Regs used in _lcd_command: [wreg]
;lcd_command@command stored from wreg
	bcf	status, 5	;RP0=0, select bank0
	movwf	(lcd_command@command)
	line	21
	
l1914:	
;lcd_interrupt.c: 21: PORTC = command;
	movf	(lcd_command@command),w
	movwf	(7)	;volatile
	line	22
	
l1916:	
;lcd_interrupt.c: 22: RD0 = 0;
	bcf	(64/8),(64)&7
	line	23
	
l1918:	
;lcd_interrupt.c: 23: RD1 =0;
	bcf	(65/8),(65)&7
	line	24
	
l1920:	
;lcd_interrupt.c: 24: RD2 = 1;
	bsf	(66/8),(66)&7
	line	25
;lcd_interrupt.c: 25: _delay((unsigned long)((5)*(16000000/4000.0)));
	opt asmopt_off
movlw	26
movwf	((??_lcd_command+0)+0+1),f
	movlw	248
movwf	((??_lcd_command+0)+0),f
u87:
	decfsz	((??_lcd_command+0)+0),f
	goto	u87
	decfsz	((??_lcd_command+0)+0+1),f
	goto	u87
	clrwdt
opt asmopt_on

	line	26
	
l1922:	
;lcd_interrupt.c: 26: RD2 = 0;
	bcf	status, 5	;RP0=0, select bank0
	bcf	status, 6	;RP1=0, select bank0
	bcf	(66/8),(66)&7
	line	28
	
l690:	
	return
	opt stack 0
GLOBAL	__end_of_lcd_command
	__end_of_lcd_command:
;; =============== function _lcd_command ends ============

	signat	_lcd_command,4216
	global	_lcd_data
psect	text196,local,class=CODE,delta=2
global __ptext196
__ptext196:

;; *************** function _lcd_data *****************
;; Defined at:
;;		line 11 in file "D:\pic_youtube_tutorials\lcd_interrupt.c"
;; Parameters:    Size  Location     Type
;;  data            1    wreg     unsigned char 
;; Auto vars:     Size  Location     Type
;;  data            1    2[BANK0 ] unsigned char 
;; Return value:  Size  Location     Type
;;		None               void
;; Registers used:
;;		wreg
;; Tracked objects:
;;		On entry : 60/0
;;		On exit  : 60/0
;;		Unchanged: 0/0
;; Data sizes:     COMMON   BANK0   BANK1   BANK3   BANK2
;;      Params:         0       0       0       0       0
;;      Locals:         0       1       0       0       0
;;      Temps:          0       2       0       0       0
;;      Totals:         0       3       0       0       0
;;Total ram usage:        3 bytes
;; Hardware stack levels used:    1
;; Hardware stack levels required when called:    3
;; This function calls:
;;		Nothing
;; This function is called by:
;;		_lcd_string
;; This function uses a non-reentrant model
;;
psect	text196
	file	"D:\pic_youtube_tutorials\lcd_interrupt.c"
	line	11
	global	__size_of_lcd_data
	__size_of_lcd_data	equ	__end_of_lcd_data-_lcd_data
	
_lcd_data:	
	opt	stack 3
; Regs used in _lcd_data: [wreg]
;lcd_data@data stored from wreg
	movwf	(lcd_data@data)
	line	12
	
l1904:	
;lcd_interrupt.c: 12: PORTC = data;
	movf	(lcd_data@data),w
	movwf	(7)	;volatile
	line	13
	
l1906:	
;lcd_interrupt.c: 13: RD0 = 1;
	bsf	(64/8),(64)&7
	line	14
	
l1908:	
;lcd_interrupt.c: 14: RD1 =0;
	bcf	(65/8),(65)&7
	line	15
	
l1910:	
;lcd_interrupt.c: 15: RD2 = 1;
	bsf	(66/8),(66)&7
	line	16
;lcd_interrupt.c: 16: _delay((unsigned long)((5)*(16000000/4000.0)));
	opt asmopt_off
movlw	26
movwf	((??_lcd_data+0)+0+1),f
	movlw	248
movwf	((??_lcd_data+0)+0),f
u97:
	decfsz	((??_lcd_data+0)+0),f
	goto	u97
	decfsz	((??_lcd_data+0)+0+1),f
	goto	u97
	clrwdt
opt asmopt_on

	line	17
	
l1912:	
;lcd_interrupt.c: 17: RD2 = 0;
	bcf	status, 5	;RP0=0, select bank0
	bcf	status, 6	;RP1=0, select bank0
	bcf	(66/8),(66)&7
	line	18
	
l687:	
	return
	opt stack 0
GLOBAL	__end_of_lcd_data
	__end_of_lcd_data:
;; =============== function _lcd_data ends ============

	signat	_lcd_data,4216
	global	_button
psect	text197,local,class=CODE,delta=2
global __ptext197
__ptext197:

;; *************** function _button *****************
;; Defined at:
;;		line 47 in file "D:\pic_youtube_tutorials\lcd_interrupt.c"
;; Parameters:    Size  Location     Type
;;		None
;; Auto vars:     Size  Location     Type
;;		None
;; Return value:  Size  Location     Type
;;		None               void
;; Registers used:
;;		wreg, fsr0l, fsr0h, status,2, status,0, pclath, cstack
;; Tracked objects:
;;		On entry : 0/0
;;		On exit  : 60/0
;;		Unchanged: 0/0
;; Data sizes:     COMMON   BANK0   BANK1   BANK3   BANK2
;;      Params:         0       0       0       0       0
;;      Locals:         0       0       0       0       0
;;      Temps:          4       0       0       0       0
;;      Totals:         4       0       0       0       0
;;Total ram usage:        4 bytes
;; Hardware stack levels used:    1
;; Hardware stack levels required when called:    2
;; This function calls:
;;		i1_lcd_command
;;		i1_lcd_string
;; This function is called by:
;;		Interrupt level 1
;; This function uses a non-reentrant model
;;
psect	text197
	file	"D:\pic_youtube_tutorials\lcd_interrupt.c"
	line	47
	global	__size_of_button
	__size_of_button	equ	__end_of_button-_button
	
_button:	
	opt	stack 3
; Regs used in _button: [wreg-fsr0h+status,2+status,0+pclath+cstack]
psect	intentry,class=CODE,delta=2
global __pintentry
__pintentry:
global interrupt_function
interrupt_function:
	global saved_w
	saved_w	set	btemp+0
	movwf	saved_w
	swapf	status,w
	movwf	(??_button+0)
	movf	fsr0,w
	movwf	(??_button+1)
	movf	pclath,w
	movwf	(??_button+2)
	bcf	status, 5	;RP0=0, select bank0
	bcf	status, 6	;RP1=0, select bank0
	movf	btemp+1,w
	movwf	(??_button+3)
	ljmp	_button
psect	text197
	line	48
	
i1l1868:	
;lcd_interrupt.c: 48: if(INTF == 1)
	btfss	(89/8),(89)&7
	goto	u5_21
	goto	u5_20
u5_21:
	goto	i1l703
u5_20:
	line	50
	
i1l1870:	
;lcd_interrupt.c: 49: {
;lcd_interrupt.c: 50: lcd_command(0x01);
	movlw	(01h)
	fcall	i1_lcd_command
	line	51
;lcd_interrupt.c: 51: lcd_command(0x83);
	movlw	(083h)
	fcall	i1_lcd_command
	line	52
	
i1l1872:	
;lcd_interrupt.c: 52: lcd_string("interrupted",11);
	movlw	(0Bh)
	movwf	(?i1_lcd_string)
	movlw	((STR_1-__stringbase))&0ffh
	fcall	i1_lcd_string
	line	53
	
i1l1874:	
;lcd_interrupt.c: 53: INTF = 0;
	bcf	(89/8),(89)&7
	line	55
	
i1l703:	
	movf	(??_button+3),w
	movwf	btemp+1
	movf	(??_button+2),w
	movwf	pclath
	movf	(??_button+1),w
	movwf	fsr0
	swapf	(??_button+0)^0FFFFFF80h,w
	movwf	status
	swapf	saved_w,f
	swapf	saved_w,w
	retfie
	opt stack 0
GLOBAL	__end_of_button
	__end_of_button:
;; =============== function _button ends ============

	signat	_button,88
	global	i1_lcd_string
psect	text198,local,class=CODE,delta=2
global __ptext198
__ptext198:

;; *************** function i1_lcd_string *****************
;; Defined at:
;;		line 30 in file "D:\pic_youtube_tutorials\lcd_interrupt.c"
;; Parameters:    Size  Location     Type
;;  lcd_string      1    wreg     PTR const unsigned char 
;;		 -> STR_1(12), 
;;  lcd_string      1    3[COMMON] unsigned char 
;; Auto vars:     Size  Location     Type
;;  lcd_string      1    4[COMMON] PTR const unsigned char 
;;		 -> STR_1(12), 
;;  lcd_string      1    5[COMMON] unsigned char 
;; Return value:  Size  Location     Type
;;		None               void
;; Registers used:
;;		wreg, fsr0l, fsr0h, status,2, status,0, pclath, cstack
;; Tracked objects:
;;		On entry : 60/0
;;		On exit  : 60/0
;;		Unchanged: 0/0
;; Data sizes:     COMMON   BANK0   BANK1   BANK3   BANK2
;;      Params:         1       0       0       0       0
;;      Locals:         2       0       0       0       0
;;      Temps:          0       0       0       0       0
;;      Totals:         3       0       0       0       0
;;Total ram usage:        3 bytes
;; Hardware stack levels used:    1
;; Hardware stack levels required when called:    1
;; This function calls:
;;		i1_lcd_data
;; This function is called by:
;;		_button
;; This function uses a non-reentrant model
;;
psect	text198
	file	"D:\pic_youtube_tutorials\lcd_interrupt.c"
	line	30
	global	__size_ofi1_lcd_string
	__size_ofi1_lcd_string	equ	__end_ofi1_lcd_string-i1_lcd_string
	
i1_lcd_string:	
	opt	stack 3
; Regs used in i1_lcd_string: [wreg-fsr0h+status,2+status,0+pclath+cstack]
;i1lcd_string@string stored from wreg
	line	32
	movwf	(i1lcd_string@string)
	
i1l1896:	
;lcd_interrupt.c: 31: unsigned char i;
;lcd_interrupt.c: 32: for(i =0; i<string_length; i++)
	clrf	(i1lcd_string@i)
	goto	i1l1902
	line	34
	
i1l1898:	
;lcd_interrupt.c: 33: {
;lcd_interrupt.c: 34: lcd_data(string[i]);
	movf	(i1lcd_string@i),w
	addwf	(i1lcd_string@string),w
	movwf	fsr0
	fcall	stringdir
	fcall	i1_lcd_data
	line	32
	
i1l1900:	
	incf	(i1lcd_string@i),f
	
i1l1902:	
	movf	(i1lcd_string@string_length),w
	subwf	(i1lcd_string@i),w
	skipc
	goto	u6_21
	goto	u6_20
u6_21:
	goto	i1l1898
u6_20:
	line	36
	
i1l696:	
	return
	opt stack 0
GLOBAL	__end_ofi1_lcd_string
	__end_ofi1_lcd_string:
;; =============== function i1_lcd_string ends ============

	signat	i1_lcd_string,88
	global	i1_lcd_command
psect	text199,local,class=CODE,delta=2
global __ptext199
__ptext199:

;; *************** function i1_lcd_command *****************
;; Defined at:
;;		line 20 in file "D:\pic_youtube_tutorials\lcd_interrupt.c"
;; Parameters:    Size  Location     Type
;;  lcd_command     1    wreg     unsigned char 
;; Auto vars:     Size  Location     Type
;;  lcd_command     1    2[COMMON] unsigned char 
;; Return value:  Size  Location     Type
;;		None               void
;; Registers used:
;;		wreg
;; Tracked objects:
;;		On entry : 60/0
;;		On exit  : 60/0
;;		Unchanged: 0/0
;; Data sizes:     COMMON   BANK0   BANK1   BANK3   BANK2
;;      Params:         0       0       0       0       0
;;      Locals:         1       0       0       0       0
;;      Temps:          2       0       0       0       0
;;      Totals:         3       0       0       0       0
;;Total ram usage:        3 bytes
;; Hardware stack levels used:    1
;; This function calls:
;;		Nothing
;; This function is called by:
;;		_button
;; This function uses a non-reentrant model
;;
psect	text199
	file	"D:\pic_youtube_tutorials\lcd_interrupt.c"
	line	20
	global	__size_ofi1_lcd_command
	__size_ofi1_lcd_command	equ	__end_ofi1_lcd_command-i1_lcd_command
	
i1_lcd_command:	
	opt	stack 4
; Regs used in i1_lcd_command: [wreg]
;i1lcd_command@command stored from wreg
	movwf	(i1lcd_command@command)
	line	21
	
i1l1886:	
;lcd_interrupt.c: 21: PORTC = command;
	movf	(i1lcd_command@command),w
	movwf	(7)	;volatile
	line	22
	
i1l1888:	
;lcd_interrupt.c: 22: RD0 = 0;
	bcf	(64/8),(64)&7
	line	23
	
i1l1890:	
;lcd_interrupt.c: 23: RD1 =0;
	bcf	(65/8),(65)&7
	line	24
	
i1l1892:	
;lcd_interrupt.c: 24: RD2 = 1;
	bsf	(66/8),(66)&7
	line	25
;lcd_interrupt.c: 25: _delay((unsigned long)((5)*(16000000/4000.0)));
	opt asmopt_off
movlw	26
movwf	((??i1_lcd_command+0)+0+1),f
	movlw	248
movwf	((??i1_lcd_command+0)+0),f
u10_27:
	decfsz	((??i1_lcd_command+0)+0),f
	goto	u10_27
	decfsz	((??i1_lcd_command+0)+0+1),f
	goto	u10_27
	clrwdt
opt asmopt_on

	line	26
	
i1l1894:	
;lcd_interrupt.c: 26: RD2 = 0;
	bcf	status, 5	;RP0=0, select bank0
	bcf	status, 6	;RP1=0, select bank0
	bcf	(66/8),(66)&7
	line	28
	
i1l690:	
	return
	opt stack 0
GLOBAL	__end_ofi1_lcd_command
	__end_ofi1_lcd_command:
;; =============== function i1_lcd_command ends ============

	signat	i1_lcd_command,88
	global	i1_lcd_data
psect	text200,local,class=CODE,delta=2
global __ptext200
__ptext200:

;; *************** function i1_lcd_data *****************
;; Defined at:
;;		line 11 in file "D:\pic_youtube_tutorials\lcd_interrupt.c"
;; Parameters:    Size  Location     Type
;;  lcd_data        1    wreg     unsigned char 
;; Auto vars:     Size  Location     Type
;;  lcd_data        1    2[COMMON] unsigned char 
;; Return value:  Size  Location     Type
;;		None               void
;; Registers used:
;;		wreg
;; Tracked objects:
;;		On entry : 60/0
;;		On exit  : 60/0
;;		Unchanged: 0/0
;; Data sizes:     COMMON   BANK0   BANK1   BANK3   BANK2
;;      Params:         0       0       0       0       0
;;      Locals:         1       0       0       0       0
;;      Temps:          2       0       0       0       0
;;      Totals:         3       0       0       0       0
;;Total ram usage:        3 bytes
;; Hardware stack levels used:    1
;; This function calls:
;;		Nothing
;; This function is called by:
;;		i1_lcd_string
;; This function uses a non-reentrant model
;;
psect	text200
	file	"D:\pic_youtube_tutorials\lcd_interrupt.c"
	line	11
	global	__size_ofi1_lcd_data
	__size_ofi1_lcd_data	equ	__end_ofi1_lcd_data-i1_lcd_data
	
i1_lcd_data:	
	opt	stack 3
; Regs used in i1_lcd_data: [wreg]
;i1lcd_data@data stored from wreg
	movwf	(i1lcd_data@data)
	line	12
	
i1l1876:	
;lcd_interrupt.c: 12: PORTC = data;
	movf	(i1lcd_data@data),w
	movwf	(7)	;volatile
	line	13
	
i1l1878:	
;lcd_interrupt.c: 13: RD0 = 1;
	bsf	(64/8),(64)&7
	line	14
	
i1l1880:	
;lcd_interrupt.c: 14: RD1 =0;
	bcf	(65/8),(65)&7
	line	15
	
i1l1882:	
;lcd_interrupt.c: 15: RD2 = 1;
	bsf	(66/8),(66)&7
	line	16
;lcd_interrupt.c: 16: _delay((unsigned long)((5)*(16000000/4000.0)));
	opt asmopt_off
movlw	26
movwf	((??i1_lcd_data+0)+0+1),f
	movlw	248
movwf	((??i1_lcd_data+0)+0),f
u11_27:
	decfsz	((??i1_lcd_data+0)+0),f
	goto	u11_27
	decfsz	((??i1_lcd_data+0)+0+1),f
	goto	u11_27
	clrwdt
opt asmopt_on

	line	17
	
i1l1884:	
;lcd_interrupt.c: 17: RD2 = 0;
	bcf	status, 5	;RP0=0, select bank0
	bcf	status, 6	;RP1=0, select bank0
	bcf	(66/8),(66)&7
	line	18
	
i1l687:	
	return
	opt stack 0
GLOBAL	__end_ofi1_lcd_data
	__end_ofi1_lcd_data:
;; =============== function i1_lcd_data ends ============

	signat	i1_lcd_data,88
psect	text201,local,class=CODE,delta=2
global __ptext201
__ptext201:
	global	btemp
	btemp set 07Eh

	DABS	1,126,2	;btemp
	global	wtemp0
	wtemp0 set btemp
	end
